target datalayout = "e-m:e-p270:32:32-p271:32:32-p272:64:64-i64:64-i128:128-f80:128-n8:16:32:64-S128"
target triple = "x86_64-pc-linux-gnu"

%struct.FreePageManager = type { %union.RelptrFreePageManager, %union.RelptrFreePageBtree, %union.RelptrFreePageSpanLeader, i32, i32, i64, i64, i64, i8, [129 x %union.RelptrFreePageSpanLeader] }
%union.RelptrFreePageManager = type { ptr }
%union.RelptrFreePageBtree = type { ptr }
%union.RelptrFreePageSpanLeader = type { ptr }
%struct.FreePageSpanLeader = type { i32, i64, %union.RelptrFreePageSpanLeader, %union.RelptrFreePageSpanLeader }
%struct.StringInfoData = type { ptr, i32, i32, i32 }

@.str = private unnamed_addr constant [47 x i8] c"metadata: self %zu max contiguous pages = %zu\0A\00", align 1
@.str.1 = private unnamed_addr constant [17 x i8] c"btree depth %u:\0A\00", align 1
@.str.2 = private unnamed_addr constant [21 x i8] c"singleton: %zu(%zu)\0A\00", align 1
@.str.3 = private unnamed_addr constant [15 x i8] c"btree recycle:\00", align 1
@.str.4 = private unnamed_addr constant [12 x i8] c"freelists:\0A\00", align 1
@.str.5 = private unnamed_addr constant [7 x i8] c"  %zu:\00", align 1
@.str.9 = private unnamed_addr constant [10 x i8] c" %zu(%zu)\00", align 1
@.str.10 = private unnamed_addr constant [5 x i8] c" %zu\00", align 1

; Function Attrs: nounwind uwtable
define internal void @FreePageManagerDumpSpans(ptr noundef %0, ptr noundef %1, i64 noundef %2, ptr noundef %3) #0 {
  %5 = alloca ptr, align 8
  %6 = alloca ptr, align 8
  %7 = alloca i64, align 8
  %8 = alloca ptr, align 8
  %9 = alloca ptr, align 8
  %10 = alloca i32, align 4
  store ptr %0, ptr %5, align 8
  store ptr %1, ptr %6, align 8
  store i64 %2, ptr %7, align 8
  store ptr %3, ptr %8, align 8
  call void @llvm.lifetime.start.p0(i64 8, ptr %9) #6
  %11 = load ptr, ptr %5, align 8
  %12 = load ptr, ptr %5, align 8
  %13 = getelementptr inbounds nuw %struct.FreePageManager, ptr %12, i32 0, i32 0
  %14 = load i64, ptr %13, align 8
  %15 = sub i64 %14, 1
  %16 = sub i64 0, %15
  %17 = getelementptr inbounds i8, ptr %11, i64 %16
  store ptr %17, ptr %9, align 8
  br label %18

18:                                               ; preds = %62, %4
  %19 = load ptr, ptr %6, align 8
  %20 = icmp ne ptr %19, null
  br i1 %20, label %21, label %64

21:                                               ; preds = %18
  %22 = load ptr, ptr %6, align 8
  %23 = getelementptr inbounds nuw %struct.FreePageSpanLeader, ptr %22, i32 0, i32 1
  %24 = load i64, ptr %23, align 8
  %25 = load i64, ptr %7, align 8
  %26 = icmp ne i64 %24, %25
  br i1 %26, label %27, label %38

27:                                               ; preds = %21
  %28 = load ptr, ptr %8, align 8
  %29 = load ptr, ptr %6, align 8
  %30 = load ptr, ptr %9, align 8
  %31 = ptrtoint ptr %29 to i64
  %32 = ptrtoint ptr %30 to i64
  %33 = sub i64 %31, %32
  %34 = udiv i64 %33, 4096
  %35 = load ptr, ptr %6, align 8
  %36 = getelementptr inbounds nuw %struct.FreePageSpanLeader, ptr %35, i32 0, i32 1
  %37 = load i64, ptr %36, align 8
  call void (ptr, ptr, ...) @appendStringInfo(ptr noundef %28, ptr noundef @.str.9, i64 noundef %34, i64 noundef %37)
  br label %46

38:                                               ; preds = %21
  %39 = load ptr, ptr %8, align 8
  %40 = load ptr, ptr %6, align 8
  %41 = load ptr, ptr %9, align 8
  %42 = ptrtoint ptr %40 to i64
  %43 = ptrtoint ptr %41 to i64
  %44 = sub i64 %42, %43
  %45 = udiv i64 %44, 4096
  call void (ptr, ptr, ...) @appendStringInfo(ptr noundef %39, ptr noundef @.str.10, i64 noundef %45)
  br label %46

46:                                               ; preds = %38, %27
  br label %47

47:                                               ; preds = %46
  br label %48

48:                                               ; preds = %47
  br label %49

49:                                               ; preds = %48
  store i32 1, ptr %10, align 4
  %50 = load ptr, ptr %6, align 8
  %51 = getelementptr inbounds nuw %struct.FreePageSpanLeader, ptr %50, i32 0, i32 3
  %52 = load i64, ptr %51, align 8
  %53 = icmp eq i64 %52, 0
  br i1 %53, label %54, label %55

54:                                               ; preds = %49
  br label %62

55:                                               ; preds = %49
  %56 = load ptr, ptr %9, align 8
  %57 = load ptr, ptr %6, align 8
  %58 = getelementptr inbounds nuw %struct.FreePageSpanLeader, ptr %57, i32 0, i32 3
  %59 = load i64, ptr %58, align 8
  %60 = getelementptr inbounds nuw i8, ptr %56, i64 %59
  %61 = getelementptr inbounds i8, ptr %60, i64 -1
  br label %62

62:                                               ; preds = %55, %54
  %63 = phi ptr [ null, %54 ], [ %61, %55 ]
  store ptr %63, ptr %6, align 8
  br label %18, !llvm.loop !16

64:                                               ; preds = %18
  %65 = load ptr, ptr %8, align 8
  call void @appendStringInfoChar(ptr noundef %65, i8 noundef signext 10)
  call void @llvm.lifetime.end.p0(i64 8, ptr %9) #6
  ret void
}

; Function Attrs: nounwind uwtable
define dso_local ptr @FreePageManagerDump(ptr noundef %0) #0 {
  %2 = alloca ptr, align 8
  %3 = alloca ptr, align 8
  %4 = alloca %struct.StringInfoData, align 8
  %5 = alloca ptr, align 8
  %6 = alloca i8, align 1
  %7 = alloca i64, align 8
  %8 = alloca ptr, align 8
  %9 = alloca i32, align 4
  %10 = alloca i32, align 4
  %11 = alloca ptr, align 8
  %12 = alloca i32, align 4
  %13 = alloca i32, align 4
  store ptr %0, ptr %2, align 8
  call void @llvm.lifetime.start.p0(i64 8, ptr %3) #6
  %14 = load ptr, ptr %2, align 8
  %15 = load ptr, ptr %2, align 8
  %16 = getelementptr inbounds nuw %struct.FreePageManager, ptr %15, i32 0, i32 0
  %17 = load i64, ptr %16, align 8
  %18 = sub i64 %17, 1
  %19 = sub i64 0, %18
  %20 = getelementptr inbounds i8, ptr %14, i64 %19
  store ptr %20, ptr %3, align 8
  call void @llvm.lifetime.start.p0(i64 24, ptr %4) #6
  call void @llvm.lifetime.start.p0(i64 8, ptr %5) #6
  call void @llvm.lifetime.start.p0(i64 1, ptr %6) #6
  store i8 0, ptr %6, align 1
  call void @llvm.lifetime.start.p0(i64 8, ptr %7) #6
  call void @initStringInfo(ptr noundef %4)
  %21 = load ptr, ptr %2, align 8
  %22 = getelementptr inbounds nuw %struct.FreePageManager, ptr %21, i32 0, i32 0
  %23 = load i64, ptr %22, align 8
  %24 = sub i64 %23, 1
  %25 = load ptr, ptr %2, align 8
  %26 = getelementptr inbounds nuw %struct.FreePageManager, ptr %25, i32 0, i32 7
  %27 = load i64, ptr %26, align 8
  call void (ptr, ptr, ...) @appendStringInfo(ptr noundef %4, ptr noundef @.str, i64 noundef %24, i64 noundef %27)
  %28 = load ptr, ptr %2, align 8
  %29 = getelementptr inbounds nuw %struct.FreePageManager, ptr %28, i32 0, i32 3
  %30 = load i32, ptr %29, align 8
  %31 = icmp ugt i32 %30, 0
  br i1 %31, label %32, label %55

32:                                               ; preds = %1
  call void @llvm.lifetime.start.p0(i64 8, ptr %8) #6
  %33 = load ptr, ptr %2, align 8
  %34 = getelementptr inbounds nuw %struct.FreePageManager, ptr %33, i32 0, i32 3
  %35 = load i32, ptr %34, align 8
  call void (ptr, ptr, ...) @appendStringInfo(ptr noundef %4, ptr noundef @.str.1, i32 noundef %35)
  br label %36

36:                                               ; preds = %32
  br label %37

37:                                               ; preds = %36
  br label %38

38:                                               ; preds = %37
  store i32 1, ptr %9, align 4
  %39 = load ptr, ptr %2, align 8
  %40 = getelementptr inbounds nuw %struct.FreePageManager, ptr %39, i32 0, i32 1
  %41 = load i64, ptr %40, align 8
  %42 = icmp eq i64 %41, 0
  br i1 %42, label %43, label %44

43:                                               ; preds = %38
  br label %51

44:                                               ; preds = %38
  %45 = load ptr, ptr %3, align 8
  %46 = load ptr, ptr %2, align 8
  %47 = getelementptr inbounds nuw %struct.FreePageManager, ptr %46, i32 0, i32 1
  %48 = load i64, ptr %47, align 8
  %49 = getelementptr inbounds nuw i8, ptr %45, i64 %48
  %50 = getelementptr inbounds i8, ptr %49, i64 -1
  br label %51

51:                                               ; preds = %44, %43
  %52 = phi ptr [ null, %43 ], [ %50, %44 ]
  store ptr %52, ptr %8, align 8
  %53 = load ptr, ptr %2, align 8
  %54 = load ptr, ptr %8, align 8
  call void @FreePageManagerDumpBtree(ptr noundef %53, ptr noundef %54, ptr noundef null, i32 noundef 0, ptr noundef %4)
  call void @llvm.lifetime.end.p0(i64 8, ptr %8) #6
  br label %68

55:                                               ; preds = %1
  %56 = load ptr, ptr %2, align 8
  %57 = getelementptr inbounds nuw %struct.FreePageManager, ptr %56, i32 0, i32 6
  %58 = load i64, ptr %57, align 8
  %59 = icmp ugt i64 %58, 0
  br i1 %59, label %60, label %67

60:                                               ; preds = %55
  %61 = load ptr, ptr %2, align 8
  %62 = getelementptr inbounds nuw %struct.FreePageManager, ptr %61, i32 0, i32 5
  %63 = load i64, ptr %62, align 8
  %64 = load ptr, ptr %2, align 8
  %65 = getelementptr inbounds nuw %struct.FreePageManager, ptr %64, i32 0, i32 6
  %66 = load i64, ptr %65, align 8
  call void (ptr, ptr, ...) @appendStringInfo(ptr noundef %4, ptr noundef @.str.2, i64 noundef %63, i64 noundef %66)
  br label %67

67:                                               ; preds = %60, %55
  br label %68

68:                                               ; preds = %67, %51
  br label %69

69:                                               ; preds = %68
  br label %70

70:                                               ; preds = %69
  br label %71

71:                                               ; preds = %70
  store i32 1, ptr %10, align 4
  %72 = load ptr, ptr %2, align 8
  %73 = getelementptr inbounds nuw %struct.FreePageManager, ptr %72, i32 0, i32 2
  %74 = load i64, ptr %73, align 8
  %75 = icmp eq i64 %74, 0
  br i1 %75, label %76, label %77

76:                                               ; preds = %71
  br label %84

77:                                               ; preds = %71
  %78 = load ptr, ptr %3, align 8
  %79 = load ptr, ptr %2, align 8
  %80 = getelementptr inbounds nuw %struct.FreePageManager, ptr %79, i32 0, i32 2
  %81 = load i64, ptr %80, align 8
  %82 = getelementptr inbounds nuw i8, ptr %78, i64 %81
  %83 = getelementptr inbounds i8, ptr %82, i64 -1
  br label %84

84:                                               ; preds = %77, %76
  %85 = phi ptr [ null, %76 ], [ %83, %77 ]
  store ptr %85, ptr %5, align 8
  %86 = load ptr, ptr %5, align 8
  %87 = icmp ne ptr %86, null
  br i1 %87, label %88, label %91

88:                                               ; preds = %84
  call void @appendStringInfoString(ptr noundef %4, ptr noundef @.str.3)
  %89 = load ptr, ptr %2, align 8
  %90 = load ptr, ptr %5, align 8
  call void @FreePageManagerDumpSpans(ptr noundef %89, ptr noundef %90, i64 noundef 1, ptr noundef %4)
  br label %91

91:                                               ; preds = %88, %84
  store i64 0, ptr %7, align 8
  br label %92

92:                                               ; preds = %138, %91
  %93 = load i64, ptr %7, align 8
  %94 = icmp ult i64 %93, 129
  br i1 %94, label %95, label %141

95:                                               ; preds = %92
  call void @llvm.lifetime.start.p0(i64 8, ptr %11) #6
  %96 = load ptr, ptr %2, align 8
  %97 = getelementptr inbounds nuw %struct.FreePageManager, ptr %96, i32 0, i32 9
  %98 = load i64, ptr %7, align 8
  %99 = getelementptr inbounds nuw [129 x %union.RelptrFreePageSpanLeader], ptr %97, i64 0, i64 %98
  %100 = load i64, ptr %99, align 8
  %101 = icmp eq i64 %100, 0
  br i1 %101, label %102, label %103

102:                                              ; preds = %95
  store i32 8, ptr %12, align 4
  br label %135

103:                                              ; preds = %95
  %104 = load i8, ptr %6, align 1, !range !6, !noundef !7
  %105 = trunc i8 %104 to i1
  br i1 %105, label %107, label %106

106:                                              ; preds = %103
  call void @appendStringInfoString(ptr noundef %4, ptr noundef @.str.4)
  store i8 1, ptr %6, align 1
  br label %107

107:                                              ; preds = %106, %103
  %108 = load i64, ptr %7, align 8
  %109 = add i64 %108, 1
  call void (ptr, ptr, ...) @appendStringInfo(ptr noundef %4, ptr noundef @.str.5, i64 noundef %109)
  br label %110

110:                                              ; preds = %107
  br label %111

111:                                              ; preds = %110
  br label %112

112:                                              ; preds = %111
  store i32 1, ptr %13, align 4
  %113 = load ptr, ptr %2, align 8
  %114 = getelementptr inbounds nuw %struct.FreePageManager, ptr %113, i32 0, i32 9
  %115 = load i64, ptr %7, align 8
  %116 = getelementptr inbounds nuw [129 x %union.RelptrFreePageSpanLeader], ptr %114, i64 0, i64 %115
  %117 = load i64, ptr %116, align 8
  %118 = icmp eq i64 %117, 0
  br i1 %118, label %119, label %120

119:                                              ; preds = %112
  br label %129

120:                                              ; preds = %112
  %121 = load ptr, ptr %3, align 8
  %122 = load ptr, ptr %2, align 8
  %123 = getelementptr inbounds nuw %struct.FreePageManager, ptr %122, i32 0, i32 9
  %124 = load i64, ptr %7, align 8
  %125 = getelementptr inbounds nuw [129 x %union.RelptrFreePageSpanLeader], ptr %123, i64 0, i64 %124
  %126 = load i64, ptr %125, align 8
  %127 = getelementptr inbounds nuw i8, ptr %121, i64 %126
  %128 = getelementptr inbounds i8, ptr %127, i64 -1
  br label %129

129:                                              ; preds = %120, %119
  %130 = phi ptr [ null, %119 ], [ %128, %120 ]
  store ptr %130, ptr %11, align 8
  %131 = load ptr, ptr %2, align 8
  %132 = load ptr, ptr %11, align 8
  %133 = load i64, ptr %7, align 8
  %134 = add i64 %133, 1
  call void @FreePageManagerDumpSpans(ptr noundef %131, ptr noundef %132, i64 noundef %134, ptr noundef %4)
  store i32 0, ptr %12, align 4
  br label %135

135:                                              ; preds = %129, %102
  call void @llvm.lifetime.end.p0(i64 8, ptr %11) #6
  %136 = load i32, ptr %12, align 4
  switch i32 %136, label %144 [
    i32 0, label %137
    i32 8, label %138
  ]

137:                                              ; preds = %135
  br label %138

138:                                              ; preds = %137, %135
  %139 = load i64, ptr %7, align 8
  %140 = add i64 %139, 1
  store i64 %140, ptr %7, align 8
  br label %92, !llvm.loop !13

141:                                              ; preds = %92
  %142 = getelementptr inbounds nuw %struct.StringInfoData, ptr %4, i32 0, i32 0
  %143 = load ptr, ptr %142, align 8
  store i32 1, ptr %12, align 4
  call void @llvm.lifetime.end.p0(i64 8, ptr %7) #6
  call void @llvm.lifetime.end.p0(i64 1, ptr %6) #6
  call void @llvm.lifetime.end.p0(i64 8, ptr %5) #6
  call void @llvm.lifetime.end.p0(i64 24, ptr %4) #6
  call void @llvm.lifetime.end.p0(i64 8, ptr %3) #6
  ret ptr %143

144:                                              ; preds = %135
  unreachable
}