; Function Attrs: nounwind uwtable
define dso_local ptr @FreePageManagerDump(ptr noundef %0) local_unnamed_addr #2 {
  %2 = alloca %struct.StringInfoData, align 8
  %3 = load i64, ptr %0, align 8
  %4 = sub i64 1, %3
  %5 = getelementptr inbounds i8, ptr %0, i64 %4
  call void @llvm.lifetime.start.p0(i64 24, ptr nonnull %2) #12
  call void @initStringInfo(ptr noundef nonnull %2) #12
  %6 = load i64, ptr %0, align 8
  %7 = add i64 %6, -1
  %8 = getelementptr inbounds nuw i8, ptr %0, i64 48
  %9 = load i64, ptr %8, align 8
  call void (ptr, ptr, ...) @appendStringInfo(ptr noundef nonnull %2, ptr noundef nonnull @.str, i64 noundef %7, i64 noundef %9) #12
  %10 = getelementptr inbounds nuw i8, ptr %0, i64 24
  %11 = load i32, ptr %10, align 8
  %.not = icmp eq i32 %11, 0
  br i1 %.not, label %19, label %12

12:                                               ; preds = %1
  call void (ptr, ptr, ...) @appendStringInfo(ptr noundef nonnull %2, ptr noundef nonnull @.str.1, i32 noundef %11) #12
  %13 = getelementptr inbounds nuw i8, ptr %0, i64 8
  %14 = load i64, ptr %13, align 8
  %15 = icmp eq i64 %14, 0
  %16 = getelementptr inbounds nuw i8, ptr %5, i64 %14
  %17 = getelementptr inbounds i8, ptr %16, i64 -1
  %18 = select i1 %15, ptr null, ptr %17
  call fastcc void @FreePageManagerDumpBtree(ptr noundef nonnull %0, ptr noundef %18, ptr noundef null, i32 noundef 0, ptr noundef %2)
  br label %25

19:                                               ; preds = %1
  %20 = getelementptr inbounds nuw i8, ptr %0, i64 40
  %21 = load i64, ptr %20, align 8
  %.not40 = icmp eq i64 %21, 0
  br i1 %.not40, label %25, label %22

22:                                               ; preds = %19
  %23 = getelementptr inbounds nuw i8, ptr %0, i64 32
  %24 = load i64, ptr %23, align 8
  call void (ptr, ptr, ...) @appendStringInfo(ptr noundef nonnull %2, ptr noundef nonnull @.str.2, i64 noundef %24, i64 noundef %21) #12
  br label %25

25:                                               ; preds = %12, %22, %19
  %26 = getelementptr inbounds nuw i8, ptr %0, i64 16
  %27 = load i64, ptr %26, align 8
  %28 = icmp eq i64 %27, 0
  br i1 %28, label %46, label %.lr.ph.i

.lr.ph.i:                                         ; preds = %25
  %29 = getelementptr inbounds nuw i8, ptr %5, i64 %27
  %30 = getelementptr inbounds i8, ptr %29, i64 -1
  call void @appendStringInfoString(ptr noundef nonnull %2, ptr noundef nonnull @.str.3) #12
  %31 = load i64, ptr %0, align 8
  %32 = sub i64 1, %31
  %33 = getelementptr inbounds i8, ptr %0, i64 %32
  %invariant.gep.i = getelementptr i8, ptr %33, i64 -1
  %34 = ptrtoint ptr %33 to i64
  br label %35

35:                                               ; preds = %select.unfold.i, %.lr.ph.i
  %.019.i = phi ptr [ %30, %.lr.ph.i ], [ %gep.i, %select.unfold.i ]
  %36 = getelementptr inbounds nuw i8, ptr %.019.i, i64 8
  %37 = load i64, ptr %36, align 8
  %.not17.i = icmp eq i64 %37, 1
  %38 = ptrtoint ptr %.019.i to i64
  %39 = sub i64 %38, %34
  %40 = lshr i64 %39, 12
  br i1 %.not17.i, label %42, label %41

41:                                               ; preds = %35
  call void (ptr, ptr, ...) @appendStringInfo(ptr noundef nonnull %2, ptr noundef nonnull @.str.9, i64 noundef %40, i64 noundef %37) #12
  br label %select.unfold.i

42:                                               ; preds = %35
  call void (ptr, ptr, ...) @appendStringInfo(ptr noundef nonnull %2, ptr noundef nonnull @.str.10, i64 noundef %40) #12
  br label %select.unfold.i

select.unfold.i:                                  ; preds = %42, %41
  %43 = getelementptr inbounds nuw i8, ptr %.019.i, i64 24
  %44 = load i64, ptr %43, align 8
  %45 = icmp eq i64 %44, 0
  %gep.i = getelementptr i8, ptr %invariant.gep.i, i64 %44
  %.not20.i = icmp eq ptr %gep.i, null
  %.not.i = select i1 %45, i1 true, i1 %.not20.i
  br i1 %.not.i, label %FreePageManagerDumpSpans.exit, label %35

FreePageManagerDumpSpans.exit:                    ; preds = %select.unfold.i
  call void @appendStringInfoChar(ptr noundef nonnull %2, i8 noundef signext 10) #12
  br label %46

46:                                               ; preds = %FreePageManagerDumpSpans.exit, %25
  %47 = getelementptr inbounds nuw i8, ptr %0, i64 64
  %invariant.gep = getelementptr i8, ptr %5, i64 -1
  br label %48

48:                                               ; preds = %46, %73
  %.052 = phi i1 [ false, %46 ], [ %.1, %73 ]
  %.03351 = phi i64 [ 0, %46 ], [ %.pre-phi, %73 ]
  %49 = getelementptr inbounds nuw [129 x %union.RelptrFreePageSpanLeader], ptr %47, i64 0, i64 %.03351
  %50 = load i64, ptr %49, align 8
  %51 = icmp eq i64 %50, 0
  br i1 %51, label %._crit_edge, label %52

._crit_edge:                                      ; preds = %48
  %.pre = add nuw nsw i64 %.03351, 1
  br label %73

52:                                               ; preds = %48
  br i1 %.052, label %54, label %53

53:                                               ; preds = %52
  call void @appendStringInfoString(ptr noundef nonnull %2, ptr noundef nonnull @.str.4) #12
  br label %54

54:                                               ; preds = %53, %52
  %55 = add nuw nsw i64 %.03351, 1
  call void (ptr, ptr, ...) @appendStringInfo(ptr noundef nonnull %2, ptr noundef nonnull @.str.5, i64 noundef %55) #12
  %56 = load i64, ptr %49, align 8
  %57 = icmp eq i64 %56, 0
  %58 = load i64, ptr %0, align 8
  %59 = sub i64 1, %58
  %60 = getelementptr inbounds i8, ptr %0, i64 %59
  %invariant.gep.i42 = getelementptr i8, ptr %60, i64 -1
  br i1 %57, label %FreePageManagerDumpSpans.exit50, label %.lr.ph.i43

.lr.ph.i43:                                       ; preds = %54
  %gep = getelementptr i8, ptr %invariant.gep, i64 %56
  %61 = ptrtoint ptr %60 to i64
  br label %62

62:                                               ; preds = %select.unfold.i46, %.lr.ph.i43
  %.019.i44 = phi ptr [ %gep, %.lr.ph.i43 ], [ %gep.i47, %select.unfold.i46 ]
  %63 = getelementptr inbounds nuw i8, ptr %.019.i44, i64 8
  %64 = load i64, ptr %63, align 8
  %.not17.i45 = icmp eq i64 %64, %55
  %65 = ptrtoint ptr %.019.i44 to i64
  %66 = sub i64 %65, %61
  %67 = lshr i64 %66, 12
  br i1 %.not17.i45, label %69, label %68

68:                                               ; preds = %62
  call void (ptr, ptr, ...) @appendStringInfo(ptr noundef nonnull %2, ptr noundef nonnull @.str.9, i64 noundef %67, i64 noundef %64) #12
  br label %select.unfold.i46

69:                                               ; preds = %62
  call void (ptr, ptr, ...) @appendStringInfo(ptr noundef nonnull %2, ptr noundef nonnull @.str.10, i64 noundef %67) #12
  br label %select.unfold.i46

select.unfold.i46:                                ; preds = %69, %68
  %70 = getelementptr inbounds nuw i8, ptr %.019.i44, i64 24
  %71 = load i64, ptr %70, align 8
  %72 = icmp eq i64 %71, 0
  %gep.i47 = getelementptr i8, ptr %invariant.gep.i42, i64 %71
  %.not20.i48 = icmp eq ptr %gep.i47, null
  %.not.i49 = select i1 %72, i1 true, i1 %.not20.i48
  br i1 %.not.i49, label %FreePageManagerDumpSpans.exit50, label %62

FreePageManagerDumpSpans.exit50:                  ; preds = %select.unfold.i46, %54
  call void @appendStringInfoChar(ptr noundef nonnull %2, i8 noundef signext 10) #12
  br label %73

73:                                               ; preds = %._crit_edge, %FreePageManagerDumpSpans.exit50
  %.pre-phi = phi i64 [ %.pre, %._crit_edge ], [ %55, %FreePageManagerDumpSpans.exit50 ]
  %.1 = phi i1 [ %.052, %._crit_edge ], [ true, %FreePageManagerDumpSpans.exit50 ]
  %exitcond.not = icmp eq i64 %.pre-phi, 129
  br i1 %exitcond.not, label %74, label %48, !llvm.loop !16

74:                                               ; preds = %73
  %75 = load ptr, ptr %2, align 8
  call void @llvm.lifetime.end.p0(i64 24, ptr nonnull %2) #12
  ret ptr %75
}